target datalayout = "e-m:e-p270:32:32-p271:32:32-p272:64:64-i64:64-i128:128-f80:128-n8:16:32:64-S128"
target triple = "x86_64-pc-linux-gnu"

%struct.wtap_opttype_t = type { ptr, ptr, i32, i32 }
%struct.wtap_block = type { ptr, ptr, ptr, i32 }
%struct.wtap_blocktype_t = type { i32, ptr, ptr, ptr, ptr, ptr, ptr }
%struct._GArray = type { ptr, i32 }
%struct.wtap_option_t = type { i32, %union.wtap_optval_t }
%union.wtap_optval_t = type { %struct.custom_opt_s }
%struct.custom_opt_s = type { i32, %union.anon.0 }
%union.anon.0 = type { %struct.nflx_custom_opt_data }
%struct.nflx_custom_opt_data = type { i32, i64, ptr, i8 }

; Function Attrs: nounwind null_pointer_is_valid sspstrong uwtable
define internal ptr @wtap_block_get_nth_option(ptr noundef %0, i32 noundef %1, i32 noundef %2) #2 {
  %4 = alloca ptr, align 8
  %5 = alloca ptr, align 8
  %6 = alloca i32, align 4
  %7 = alloca i32, align 4
  %8 = alloca i32, align 4
  %9 = alloca ptr, align 8
  %10 = alloca i32, align 4
  %11 = alloca i32, align 4
  store ptr %0, ptr %5, align 8
  store i32 %1, ptr %6, align 4
  store i32 %2, ptr %7, align 4
  call void @llvm.lifetime.start.p0(i64 4, ptr %8) #15
  call void @llvm.lifetime.start.p0(i64 8, ptr %9) #15
  call void @llvm.lifetime.start.p0(i64 4, ptr %10) #15
  %12 = load ptr, ptr %5, align 8
  %13 = icmp eq ptr %12, null
  br i1 %13, label %14, label %15

14:                                               ; preds = %3
  store ptr null, ptr %4, align 8
  store i32 1, ptr %11, align 4
  br label %53

15:                                               ; preds = %3
  store i32 0, ptr %10, align 4
  store i32 0, ptr %8, align 4
  br label %16

16:                                               ; preds = %49, %15
  %17 = load i32, ptr %8, align 4
  %18 = load ptr, ptr %5, align 8
  %19 = getelementptr inbounds nuw %struct.wtap_block, ptr %18, i32 0, i32 2
  %20 = load ptr, ptr %19, align 8
  %21 = getelementptr inbounds nuw %struct._GArray, ptr %20, i32 0, i32 1
  %22 = load i32, ptr %21, align 8
  %23 = icmp ult i32 %17, %22
  br i1 %23, label %24, label %52

24:                                               ; preds = %16
  %25 = load ptr, ptr %5, align 8
  %26 = getelementptr inbounds nuw %struct.wtap_block, ptr %25, i32 0, i32 2
  %27 = load ptr, ptr %26, align 8
  %28 = getelementptr inbounds nuw %struct._GArray, ptr %27, i32 0, i32 0
  %29 = load ptr, ptr %28, align 8
  %30 = load i32, ptr %8, align 4
  %31 = zext i32 %30 to i64
  %32 = getelementptr %struct.wtap_option_t, ptr %29, i64 %31
  store ptr %32, ptr %9, align 8
  %33 = load ptr, ptr %9, align 8
  %34 = getelementptr inbounds nuw %struct.wtap_option_t, ptr %33, i32 0, i32 0
  %35 = load i32, ptr %34, align 8
  %36 = load i32, ptr %6, align 4
  %37 = icmp eq i32 %35, %36
  br i1 %37, label %38, label %48

38:                                               ; preds = %24
  %39 = load i32, ptr %10, align 4
  %40 = load i32, ptr %7, align 4
  %41 = icmp eq i32 %39, %40
  br i1 %41, label %42, label %45

42:                                               ; preds = %38
  %43 = load ptr, ptr %9, align 8
  %44 = getelementptr inbounds nuw %struct.wtap_option_t, ptr %43, i32 0, i32 1
  store ptr %44, ptr %4, align 8
  store i32 1, ptr %11, align 4
  br label %53

45:                                               ; preds = %38
  %46 = load i32, ptr %10, align 4
  %47 = add i32 %46, 1
  store i32 %47, ptr %10, align 4
  br label %48

48:                                               ; preds = %45, %24
  br label %49

49:                                               ; preds = %48
  %50 = load i32, ptr %8, align 4
  %51 = add i32 %50, 1
  store i32 %51, ptr %8, align 4
  br label %16, !llvm.loop !23

52:                                               ; preds = %16
  store ptr null, ptr %4, align 8
  store i32 1, ptr %11, align 4
  br label %53

53:                                               ; preds = %52, %42, %14
  call void @llvm.lifetime.end.p0(i64 4, ptr %10) #15
  call void @llvm.lifetime.end.p0(i64 8, ptr %9) #15
  call void @llvm.lifetime.end.p0(i64 4, ptr %8) #15
  %54 = load ptr, ptr %4, align 8
  ret ptr %54
}

; Function Attrs: null_pointer_is_valid sspstrong uwtable
define internal i32 @wtap_block_get_nth_option_common(ptr noundef %0, i32 noundef %1, i32 noundef %2, i32 noundef %3, ptr noundef %4) #0 {
  %6 = alloca i32, align 4
  %7 = alloca ptr, align 8
  %8 = alloca i32, align 4
  %9 = alloca i32, align 4
  %10 = alloca i32, align 4
  %11 = alloca ptr, align 8
  %12 = alloca ptr, align 8
  %13 = alloca ptr, align 8
  %14 = alloca i32, align 4
  store ptr %0, ptr %7, align 8
  store i32 %1, ptr %8, align 4
  store i32 %2, ptr %9, align 4
  store i32 %3, ptr %10, align 4
  store ptr %4, ptr %11, align 8
  call void @llvm.lifetime.start.p0(i64 8, ptr %12) #15
  call void @llvm.lifetime.start.p0(i64 8, ptr %13) #15
  %15 = load ptr, ptr %7, align 8
  %16 = icmp eq ptr %15, null
  br i1 %16, label %17, label %18

17:                                               ; preds = %5
  store i32 -6, ptr %6, align 4
  store i32 1, ptr %14, align 4
  br label %56

18:                                               ; preds = %5
  %19 = load ptr, ptr %7, align 8
  %20 = getelementptr inbounds nuw %struct.wtap_block, ptr %19, i32 0, i32 0
  %21 = load ptr, ptr %20, align 8
  %22 = getelementptr inbounds nuw %struct.wtap_blocktype_t, ptr %21, i32 0, i32 6
  %23 = load ptr, ptr %22, align 8
  %24 = load i32, ptr %8, align 4
  %25 = zext i32 %24 to i64
  %26 = inttoptr i64 %25 to ptr
  %27 = call ptr @g_hash_table_lookup(ptr noundef %23, ptr noundef %26)
  store ptr %27, ptr %12, align 8
  %28 = load ptr, ptr %12, align 8
  %29 = icmp eq ptr %28, null
  br i1 %29, label %30, label %31

30:                                               ; preds = %18
  store i32 -1, ptr %6, align 4
  store i32 1, ptr %14, align 4
  br label %56

31:                                               ; preds = %18
  %32 = load ptr, ptr %12, align 8
  %33 = getelementptr inbounds nuw %struct.wtap_opttype_t, ptr %32, i32 0, i32 2
  %34 = load i32, ptr %33, align 8
  %35 = load i32, ptr %9, align 4
  %36 = icmp ne i32 %34, %35
  br i1 %36, label %37, label %38

37:                                               ; preds = %31
  store i32 -3, ptr %6, align 4
  store i32 1, ptr %14, align 4
  br label %56

38:                                               ; preds = %31
  %39 = load ptr, ptr %12, align 8
  %40 = getelementptr inbounds nuw %struct.wtap_opttype_t, ptr %39, i32 0, i32 3
  %41 = load i32, ptr %40, align 4
  %42 = and i32 %41, 1
  %43 = icmp ne i32 %42, 0
  br i1 %43, label %45, label %44

44:                                               ; preds = %38
  store i32 -4, ptr %6, align 4
  store i32 1, ptr %14, align 4
  br label %56

45:                                               ; preds = %38
  %46 = load ptr, ptr %7, align 8
  %47 = load i32, ptr %8, align 4
  %48 = load i32, ptr %10, align 4
  %49 = call ptr @wtap_block_get_nth_option(ptr noundef %46, i32 noundef %47, i32 noundef %48)
  store ptr %49, ptr %13, align 8
  %50 = load ptr, ptr %13, align 8
  %51 = icmp eq ptr %50, null
  br i1 %51, label %52, label %53

52:                                               ; preds = %45
  store i32 -2, ptr %6, align 4
  store i32 1, ptr %14, align 4
  br label %56

53:                                               ; preds = %45
  %54 = load ptr, ptr %13, align 8
  %55 = load ptr, ptr %11, align 8
  store ptr %54, ptr %55, align 8
  store i32 0, ptr %6, align 4
  store i32 1, ptr %14, align 4
  br label %56

56:                                               ; preds = %53, %52, %44, %37, %30, %17
  call void @llvm.lifetime.end.p0(i64 8, ptr %13) #15
  call void @llvm.lifetime.end.p0(i64 8, ptr %12) #15
  %57 = load i32, ptr %6, align 4
  ret i32 %57
}

; Function Attrs: null_pointer_is_valid sspstrong uwtable
define i32 @wtap_block_set_nth_bytes_option_value(ptr noundef %0, i32 noundef %1, i32 noundef %2, ptr noundef %3) #0 {
  %5 = alloca i32, align 4
  %6 = alloca ptr, align 8
  %7 = alloca i32, align 4
  %8 = alloca i32, align 4
  %9 = alloca ptr, align 8
  %10 = alloca i32, align 4
  %11 = alloca ptr, align 8
  %12 = alloca i32, align 4
  store ptr %0, ptr %6, align 8
  store i32 %1, ptr %7, align 4
  store i32 %2, ptr %8, align 4
  store ptr %3, ptr %9, align 8
  call void @llvm.lifetime.start.p0(i64 4, ptr %10) #15
  call void @llvm.lifetime.start.p0(i64 8, ptr %11) #15
  %13 = load ptr, ptr %6, align 8
  %14 = load i32, ptr %7, align 4
  %15 = load i32, ptr %8, align 4
  %16 = call i32 @wtap_block_get_nth_option_common(ptr noundef %13, i32 noundef %14, i32 noundef 4, i32 noundef %15, ptr noundef %11)
  store i32 %16, ptr %10, align 4
  %17 = load i32, ptr %10, align 4
  %18 = icmp ne i32 %17, 0
  br i1 %18, label %19, label %21

19:                                               ; preds = %4
  %20 = load i32, ptr %10, align 4
  store i32 %20, ptr %5, align 4
  store i32 1, ptr %12, align 4
  br label %27

21:                                               ; preds = %4
  %22 = load ptr, ptr %11, align 8
  %23 = load ptr, ptr %22, align 8
  call void @g_bytes_unref(ptr noundef %23)
  %24 = load ptr, ptr %9, align 8
  %25 = call ptr @g_bytes_ref(ptr noundef %24)
  %26 = load ptr, ptr %11, align 8
  store ptr %25, ptr %26, align 8
  store i32 0, ptr %5, align 4
  store i32 1, ptr %12, align 4
  br label %27

27:                                               ; preds = %21, %19
  call void @llvm.lifetime.end.p0(i64 8, ptr %11) #15
  call void @llvm.lifetime.end.p0(i64 4, ptr %10) #15
  %28 = load i32, ptr %5, align 4
  ret i32 %28
}